target datalayout = "e-m:e-p270:32:32-p271:32:32-p272:64:64-i64:64-i128:128-f80:128-n8:16:32:64-S128"
target triple = "x86_64-pc-linux-gnu"

%"class.grpc_core::CompressionAlgorithmSet" = type { %"class.grpc_core::BitSet" }
%"class.grpc_core::BitSet" = type { [1 x i8] }
%struct.grpc_compression_options = type { i32, %"struct.grpc_compression_options::grpc_compression_options_default_level", %"struct.grpc_compression_options::grpc_compression_options_default_algorithm" }
%"struct.grpc_compression_options::grpc_compression_options_default_level" = type { i32, i32 }
%"struct.grpc_compression_options::grpc_compression_options_default_algorithm" = type { i32, i32 }

; Function Attrs: mustprogress uwtable
define i32 @grpc_compression_options_is_algorithm_enabled(ptr noundef %0, i32 noundef %1) #5 {
  %3 = alloca ptr, align 8
  %4 = alloca i32, align 4
  %5 = alloca %"class.grpc_core::CompressionAlgorithmSet", align 1
  store ptr %0, ptr %3, align 8, !tbaa !35
  store i32 %1, ptr %4, align 4, !tbaa !3
  call void @llvm.lifetime.start.p0(i64 1, ptr %5) #3
  %6 = load ptr, ptr %3, align 8, !tbaa !35
  %7 = getelementptr inbounds nuw %struct.grpc_compression_options, ptr %6, i32 0, i32 0
  %8 = load i32, ptr %7, align 4, !tbaa !37
  %9 = call i8 @_ZN9grpc_core23CompressionAlgorithmSet10FromUint32Ej(i32 noundef %8)
  %10 = getelementptr inbounds nuw %"class.grpc_core::CompressionAlgorithmSet", ptr %5, i32 0, i32 0
  %11 = getelementptr inbounds nuw %"class.grpc_core::BitSet", ptr %10, i32 0, i32 0
  store i8 %9, ptr %11, align 1
  %12 = load i32, ptr %4, align 4, !tbaa !3
  %13 = call noundef zeroext i1 @_ZNK9grpc_core23CompressionAlgorithmSet5IsSetE26grpc_compression_algorithm(ptr noundef nonnull align 1 dereferenceable(1) %5, i32 noundef %12)
  %14 = zext i1 %13 to i32
  call void @llvm.lifetime.end.p0(i64 1, ptr %5) #3
  ret i32 %14
}