; Function Attrs: mustprogress uwtable
define range(i32 0, 2) i32 @grpc_compression_options_is_algorithm_enabled(ptr noundef readonly captures(none) %0, i32 noundef %1) local_unnamed_addr #4 {
  %3 = alloca %"class.grpc_core::CompressionAlgorithmSet", align 1
  call void @llvm.lifetime.start.p0(i64 1, ptr nonnull %3) #13
  %4 = load i32, ptr %0, align 4, !tbaa !21
  %5 = tail call i8 @_ZN9grpc_core23CompressionAlgorithmSet10FromUint32Ej(i32 noundef %4)
  store i8 %5, ptr %3, align 1
  %6 = call noundef zeroext i1 @_ZNK9grpc_core23CompressionAlgorithmSet5IsSetE26grpc_compression_algorithm(ptr noundef nonnull align 1 dereferenceable(1) %3, i32 noundef %1)
  %7 = zext i1 %6 to i32
  call void @llvm.lifetime.end.p0(i64 1, ptr nonnull %3) #13
  ret i32 %7
}